target datalayout = "e-m:e-p270:32:32-p271:32:32-p272:64:64-i64:64-i128:128-f80:128-n8:16:32:64-S128"
target triple = "x86_64-pc-linux-gnu"

%"struct.vcpkg::StringView" = type { ptr, i64 }
%"struct.vcpkg::MessageLineSegment" = type { i8, %"class.std::__cxx11::basic_string" }
%"class.std::__cxx11::basic_string" = type { %"struct.std::__cxx11::basic_string<char>::_Alloc_hider", i64, %union.anon }
%"struct.std::__cxx11::basic_string<char>::_Alloc_hider" = type { ptr }
%union.anon = type { i64, [8 x i8] }
%"struct.vcpkg::MessageLine" = type { %"class.std::vector" }
%"class.std::vector" = type { %"struct.std::_Vector_base" }
%"struct.std::_Vector_base" = type { %"struct.std::_Vector_base<vcpkg::MessageLineSegment, std::allocator<vcpkg::MessageLineSegment>>::_Vector_impl" }
%"struct.std::_Vector_base<vcpkg::MessageLineSegment, std::allocator<vcpkg::MessageLineSegment>>::_Vector_impl" = type { %"struct.std::_Vector_base<vcpkg::MessageLineSegment, std::allocator<vcpkg::MessageLineSegment>>::_Vector_impl_data" }
%"struct.std::_Vector_base<vcpkg::MessageLineSegment, std::allocator<vcpkg::MessageLineSegment>>::_Vector_impl_data" = type { ptr, ptr, ptr }
%"class.__gnu_cxx::__normal_iterator" = type { ptr }

@.str.1 = private unnamed_addr constant [2 x i8] c"\0A\00", align 1

; Function Attrs: mustprogress nounwind uwtable
define linkonce_odr dso_local noundef nonnull align 8 dereferenceable(8) ptr @_ZNK9__gnu_cxx17__normal_iteratorIPKN5vcpkg18MessageLineSegmentESt6vectorIS2_SaIS2_EEE4baseEv(ptr noundef nonnull align 8 dereferenceable(8) %0) #1 comdat align 2 {
  %2 = alloca ptr, align 8
  store ptr %0, ptr %2, align 8, !tbaa !36
  %3 = load ptr, ptr %2, align 8
  %4 = getelementptr inbounds nuw %"class.__gnu_cxx::__normal_iterator", ptr %3, i32 0, i32 0
  ret ptr %4
}

; Function Attrs: mustprogress nounwind uwtable
define linkonce_odr dso_local void @_ZN9__gnu_cxx17__normal_iteratorIPKN5vcpkg18MessageLineSegmentESt6vectorIS2_SaIS2_EEEC2ERKS4_(ptr noundef nonnull align 8 dereferenceable(8) %0, ptr noundef nonnull align 8 dereferenceable(8) %1) unnamed_addr #1 comdat align 2 {
  %3 = alloca ptr, align 8
  %4 = alloca ptr, align 8
  store ptr %0, ptr %3, align 8, !tbaa !36
  store ptr %1, ptr %4, align 8, !tbaa !127
  %5 = load ptr, ptr %3, align 8
  %6 = getelementptr inbounds nuw %"class.__gnu_cxx::__normal_iterator", ptr %5, i32 0, i32 0
  %7 = load ptr, ptr %4, align 8, !tbaa !127
  %8 = load ptr, ptr %7, align 8, !tbaa !20
  store ptr %8, ptr %6, align 8, !tbaa !38
  ret void
}

; Function Attrs: mustprogress nounwind uwtable
define linkonce_odr dso_local void @_ZN5vcpkg10StringViewC2EPKc(ptr noundef nonnull align 8 dereferenceable(16) %0, ptr noundef %1) unnamed_addr #1 comdat align 2 {
  %3 = alloca ptr, align 8
  %4 = alloca ptr, align 8
  store ptr %0, ptr %3, align 8, !tbaa !30
  store ptr %1, ptr %4, align 8, !tbaa !28
  %5 = load ptr, ptr %3, align 8
  %6 = getelementptr inbounds nuw %"struct.vcpkg::StringView", ptr %5, i32 0, i32 0
  %7 = load ptr, ptr %4, align 8, !tbaa !28
  store ptr %7, ptr %6, align 8, !tbaa !32
  %8 = getelementptr inbounds nuw %"struct.vcpkg::StringView", ptr %5, i32 0, i32 1
  %9 = load ptr, ptr %4, align 8, !tbaa !28
  %10 = call i64 @strlen(ptr noundef %9) #21
  store i64 %10, ptr %8, align 8, !tbaa !34
  ret void
}

; Function Attrs: mustprogress nounwind uwtable
define linkonce_odr dso_local noundef nonnull align 8 dereferenceable(8) ptr @_ZN9__gnu_cxx17__normal_iteratorIPKN5vcpkg18MessageLineSegmentESt6vectorIS2_SaIS2_EEEppEv(ptr noundef nonnull align 8 dereferenceable(8) %0) #1 comdat align 2 {
  %2 = alloca ptr, align 8
  store ptr %0, ptr %2, align 8, !tbaa !36
  %3 = load ptr, ptr %2, align 8
  %4 = getelementptr inbounds nuw %"class.__gnu_cxx::__normal_iterator", ptr %3, i32 0, i32 0
  %5 = load ptr, ptr %4, align 8, !tbaa !38
  %6 = getelementptr inbounds nuw %"struct.vcpkg::MessageLineSegment", ptr %5, i32 1
  store ptr %6, ptr %4, align 8, !tbaa !38
  ret ptr %3
}

; Function Attrs: mustprogress nounwind uwtable
define linkonce_odr dso_local noundef nonnull align 8 dereferenceable(40) ptr @_ZNK9__gnu_cxx17__normal_iteratorIPKN5vcpkg18MessageLineSegmentESt6vectorIS2_SaIS2_EEEdeEv(ptr noundef nonnull align 8 dereferenceable(8) %0) #1 comdat align 2 {
  %2 = alloca ptr, align 8
  store ptr %0, ptr %2, align 8, !tbaa !36
  %3 = load ptr, ptr %2, align 8
  %4 = getelementptr inbounds nuw %"class.__gnu_cxx::__normal_iterator", ptr %3, i32 0, i32 0
  %5 = load ptr, ptr %4, align 8, !tbaa !38
  ret ptr %5
}

; Function Attrs: inlinehint mustprogress nounwind uwtable
define linkonce_odr dso_local noundef zeroext i1 @_ZN9__gnu_cxxneIPKN5vcpkg18MessageLineSegmentESt6vectorIS2_SaIS2_EEEEbRKNS_17__normal_iteratorIT_T0_EESD_(ptr noundef nonnull align 8 dereferenceable(8) %0, ptr noundef nonnull align 8 dereferenceable(8) %1) #4 comdat {
  %3 = alloca ptr, align 8
  %4 = alloca ptr, align 8
  store ptr %0, ptr %3, align 8, !tbaa !36
  store ptr %1, ptr %4, align 8, !tbaa !36
  %5 = load ptr, ptr %3, align 8, !tbaa !36
  %6 = call noundef nonnull align 8 dereferenceable(8) ptr @_ZNK9__gnu_cxx17__normal_iteratorIPKN5vcpkg18MessageLineSegmentESt6vectorIS2_SaIS2_EEE4baseEv(ptr noundef nonnull align 8 dereferenceable(8) %5) #18
  %7 = load ptr, ptr %6, align 8, !tbaa !20
  %8 = load ptr, ptr %4, align 8, !tbaa !36
  %9 = call noundef nonnull align 8 dereferenceable(8) ptr @_ZNK9__gnu_cxx17__normal_iteratorIPKN5vcpkg18MessageLineSegmentESt6vectorIS2_SaIS2_EEE4baseEv(ptr noundef nonnull align 8 dereferenceable(8) %8) #18
  %10 = load ptr, ptr %9, align 8, !tbaa !20
  %11 = icmp ne ptr %7, %10
  ret i1 %11
}

; Function Attrs: mustprogress nounwind uwtable
define linkonce_odr dso_local ptr @_ZNKSt6vectorIN5vcpkg18MessageLineSegmentESaIS1_EE3endEv(ptr noundef nonnull align 8 dereferenceable(24) %0) #1 comdat align 2 {
  %2 = alloca %"class.__gnu_cxx::__normal_iterator", align 8
  %3 = alloca ptr, align 8
  store ptr %0, ptr %3, align 8, !tbaa !18
  %4 = load ptr, ptr %3, align 8
  %5 = getelementptr inbounds nuw %"struct.std::_Vector_base", ptr %4, i32 0, i32 0
  %6 = getelementptr inbounds nuw %"struct.std::_Vector_base<vcpkg::MessageLineSegment, std::allocator<vcpkg::MessageLineSegment>>::_Vector_impl_data", ptr %5, i32 0, i32 1
  call void @_ZN9__gnu_cxx17__normal_iteratorIPKN5vcpkg18MessageLineSegmentESt6vectorIS2_SaIS2_EEEC2ERKS4_(ptr noundef nonnull align 8 dereferenceable(8) %2, ptr noundef nonnull align 8 dereferenceable(8) %6) #18
  %7 = getelementptr inbounds nuw %"class.__gnu_cxx::__normal_iterator", ptr %2, i32 0, i32 0
  %8 = load ptr, ptr %7, align 8
  ret ptr %8
}

; Function Attrs: mustprogress nounwind uwtable
define linkonce_odr dso_local ptr @_ZNKSt6vectorIN5vcpkg18MessageLineSegmentESaIS1_EE5beginEv(ptr noundef nonnull align 8 dereferenceable(24) %0) #1 comdat align 2 {
  %2 = alloca %"class.__gnu_cxx::__normal_iterator", align 8
  %3 = alloca ptr, align 8
  store ptr %0, ptr %3, align 8, !tbaa !18
  %4 = load ptr, ptr %3, align 8
  %5 = getelementptr inbounds nuw %"struct.std::_Vector_base", ptr %4, i32 0, i32 0
  %6 = getelementptr inbounds nuw %"struct.std::_Vector_base<vcpkg::MessageLineSegment, std::allocator<vcpkg::MessageLineSegment>>::_Vector_impl_data", ptr %5, i32 0, i32 0
  call void @_ZN9__gnu_cxx17__normal_iteratorIPKN5vcpkg18MessageLineSegmentESt6vectorIS2_SaIS2_EEEC2ERKS4_(ptr noundef nonnull align 8 dereferenceable(8) %2, ptr noundef nonnull align 8 dereferenceable(8) %6) #18
  %7 = getelementptr inbounds nuw %"class.__gnu_cxx::__normal_iterator", ptr %2, i32 0, i32 0
  %8 = load ptr, ptr %7, align 8
  ret ptr %8
}

; Function Attrs: mustprogress nounwind uwtable
define dso_local noundef nonnull align 8 dereferenceable(24) ptr @_ZNK5vcpkg11MessageLine12get_segmentsEv(ptr noundef nonnull align 8 dereferenceable(24) %0) #1 align 2 {
  %2 = alloca ptr, align 8
  store ptr %0, ptr %2, align 8, !tbaa !4
  %3 = load ptr, ptr %2, align 8
  %4 = getelementptr inbounds nuw %"struct.vcpkg::MessageLine", ptr %3, i32 0, i32 0
  ret ptr %4
}

; Function Attrs: mustprogress uwtable
define internal void @_ZN12_GLOBAL__N_117StdErrMessageSink7printlnERKN5vcpkg11MessageLineE(ptr noundef nonnull align 8 dereferenceable(8) %0, ptr noundef nonnull align 8 dereferenceable(24) %1) unnamed_addr #0 align 2 {
  %3 = alloca ptr, align 8
  %4 = alloca ptr, align 8
  %5 = alloca ptr, align 8
  %6 = alloca %"class.__gnu_cxx::__normal_iterator", align 8
  %7 = alloca %"class.__gnu_cxx::__normal_iterator", align 8
  %8 = alloca ptr, align 8
  %9 = alloca %"struct.vcpkg::StringView", align 8
  %10 = alloca %"struct.vcpkg::StringView", align 8
  store ptr %0, ptr %3, align 8, !tbaa !129
  store ptr %1, ptr %4, align 8, !tbaa !4
  call void @llvm.lifetime.start.p0(i64 8, ptr %5) #18
  %11 = load ptr, ptr %4, align 8, !tbaa !4
  %12 = call noundef nonnull align 8 dereferenceable(24) ptr @_ZNK5vcpkg11MessageLine12get_segmentsEv(ptr noundef nonnull align 8 dereferenceable(24) %11) #18
  store ptr %12, ptr %5, align 8, !tbaa !18
  call void @llvm.lifetime.start.p0(i64 8, ptr %6) #18
  %13 = load ptr, ptr %5, align 8, !tbaa !18
  %14 = call ptr @_ZNKSt6vectorIN5vcpkg18MessageLineSegmentESaIS1_EE5beginEv(ptr noundef nonnull align 8 dereferenceable(24) %13) #18
  %15 = getelementptr inbounds nuw %"class.__gnu_cxx::__normal_iterator", ptr %6, i32 0, i32 0
  store ptr %14, ptr %15, align 8
  call void @llvm.lifetime.start.p0(i64 8, ptr %7) #18
  %16 = load ptr, ptr %5, align 8, !tbaa !18
  %17 = call ptr @_ZNKSt6vectorIN5vcpkg18MessageLineSegmentESaIS1_EE3endEv(ptr noundef nonnull align 8 dereferenceable(24) %16) #18
  %18 = getelementptr inbounds nuw %"class.__gnu_cxx::__normal_iterator", ptr %7, i32 0, i32 0
  store ptr %17, ptr %18, align 8
  br label %19

19:                                               ; preds = %33, %2
  %20 = call noundef zeroext i1 @_ZN9__gnu_cxxneIPKN5vcpkg18MessageLineSegmentESt6vectorIS2_SaIS2_EEEEbRKNS_17__normal_iteratorIT_T0_EESD_(ptr noundef nonnull align 8 dereferenceable(8) %6, ptr noundef nonnull align 8 dereferenceable(8) %7) #18
  br i1 %20, label %22, label %21

21:                                               ; preds = %19
  call void @llvm.lifetime.end.p0(i64 8, ptr %7) #18
  call void @llvm.lifetime.end.p0(i64 8, ptr %6) #18
  call void @llvm.lifetime.end.p0(i64 8, ptr %5) #18
  br label %35

22:                                               ; preds = %19
  call void @llvm.lifetime.start.p0(i64 8, ptr %8) #18
  %23 = call noundef nonnull align 8 dereferenceable(40) ptr @_ZNK9__gnu_cxx17__normal_iteratorIPKN5vcpkg18MessageLineSegmentESt6vectorIS2_SaIS2_EEEdeEv(ptr noundef nonnull align 8 dereferenceable(8) %6) #18
  store ptr %23, ptr %8, align 8, !tbaa !20
  %24 = load ptr, ptr %8, align 8, !tbaa !20
  %25 = getelementptr inbounds nuw %"struct.vcpkg::MessageLineSegment", ptr %24, i32 0, i32 0
  %26 = load i8, ptr %25, align 8, !tbaa !11
  %27 = load ptr, ptr %8, align 8, !tbaa !20
  %28 = getelementptr inbounds nuw %"struct.vcpkg::MessageLineSegment", ptr %27, i32 0, i32 1
  call void @_ZN5vcpkg10StringViewC1ERKNSt7__cxx1112basic_stringIcSt11char_traitsIcESaIcEEE(ptr noundef nonnull align 8 dereferenceable(16) %9, ptr noundef nonnull align 8 dereferenceable(32) %28) #18
  %29 = getelementptr inbounds nuw { ptr, i64 }, ptr %9, i32 0, i32 0
  %30 = load ptr, ptr %29, align 8
  %31 = getelementptr inbounds nuw { ptr, i64 }, ptr %9, i32 0, i32 1
  %32 = load i64, ptr %31, align 8
  call void @_ZN5vcpkg3msg32write_unlocalized_text_to_stderrENS_5ColorENS_10StringViewE(i8 noundef signext %26, ptr %30, i64 %32)
  call void @llvm.lifetime.end.p0(i64 8, ptr %8) #18
  br label %33

33:                                               ; preds = %22
  %34 = call noundef nonnull align 8 dereferenceable(8) ptr @_ZN9__gnu_cxx17__normal_iteratorIPKN5vcpkg18MessageLineSegmentESt6vectorIS2_SaIS2_EEEppEv(ptr noundef nonnull align 8 dereferenceable(8) %6) #18
  br label %19

35:                                               ; preds = %21
  call void @_ZN5vcpkg10StringViewC2EPKc(ptr noundef nonnull align 8 dereferenceable(16) %10, ptr noundef @.str.1) #18
  %36 = getelementptr inbounds nuw { ptr, i64 }, ptr %10, i32 0, i32 0
  %37 = load ptr, ptr %36, align 8
  %38 = getelementptr inbounds nuw { ptr, i64 }, ptr %10, i32 0, i32 1
  %39 = load i64, ptr %38, align 8
  call void @_ZN5vcpkg3msg32write_unlocalized_text_to_stderrENS_5ColorENS_10StringViewE(i8 noundef signext 0, ptr %37, i64 %39)
  ret void
}